target datalayout = "e-m:e-p270:32:32-p271:32:32-p272:64:64-i64:64-i128:128-f80:128-n8:16:32:64-S128"
target triple = "x86_64-pc-linux-gnu"

@.str.12 = private unnamed_addr constant [12 x i8] c"Translation\00", align 1
@.str.13 = private unnamed_addr constant [15 x i8] c"RotationOffset\00", align 1
@.str.14 = private unnamed_addr constant [14 x i8] c"RotationPivot\00", align 1
@.str.15 = private unnamed_addr constant [12 x i8] c"PreRotation\00", align 1
@.str.16 = private unnamed_addr constant [9 x i8] c"Rotation\00", align 1
@.str.17 = private unnamed_addr constant [13 x i8] c"PostRotation\00", align 1
@.str.18 = private unnamed_addr constant [21 x i8] c"RotationPivotInverse\00", align 1
@.str.19 = private unnamed_addr constant [14 x i8] c"ScalingOffset\00", align 1
@.str.20 = private unnamed_addr constant [13 x i8] c"ScalingPivot\00", align 1
@.str.21 = private unnamed_addr constant [8 x i8] c"Scaling\00", align 1
@.str.22 = private unnamed_addr constant [20 x i8] c"ScalingPivotInverse\00", align 1
@.str.23 = private unnamed_addr constant [17 x i8] c"GeometricScaling\00", align 1
@.str.24 = private unnamed_addr constant [18 x i8] c"GeometricRotation\00", align 1
@.str.25 = private unnamed_addr constant [21 x i8] c"GeometricTranslation\00", align 1
@.str.26 = private unnamed_addr constant [24 x i8] c"GeometricScalingInverse\00", align 1
@.str.27 = private unnamed_addr constant [25 x i8] c"GeometricRotationInverse\00", align 1
@.str.28 = private unnamed_addr constant [28 x i8] c"GeometricTranslationInverse\00", align 1

; Function Attrs: mustprogress nounwind uwtable
define hidden noundef ptr @_ZN6Assimp3FBX12FBXConverter22NameTransformationCompENS1_18TransformationCompE(ptr noundef nonnull align 8 dereferenceable(489) %0, i32 noundef %1) #3 align 2 {
  %3 = alloca ptr, align 8
  %4 = alloca ptr, align 8
  %5 = alloca i32, align 4
  store ptr %0, ptr %4, align 8
  store i32 %1, ptr %5, align 4
  %6 = load i32, ptr %5, align 4
  switch i32 %6, label %25 [
    i32 3, label %7
    i32 4, label %8
    i32 5, label %9
    i32 6, label %10
    i32 7, label %11
    i32 8, label %12
    i32 9, label %13
    i32 10, label %14
    i32 11, label %15
    i32 12, label %16
    i32 13, label %17
    i32 16, label %18
    i32 15, label %19
    i32 14, label %20
    i32 0, label %21
    i32 1, label %22
    i32 2, label %23
    i32 17, label %24
  ]

7:                                                ; preds = %2
  store ptr @.str.12, ptr %3, align 8
  br label %27

8:                                                ; preds = %2
  store ptr @.str.13, ptr %3, align 8
  br label %27

9:                                                ; preds = %2
  store ptr @.str.14, ptr %3, align 8
  br label %27

10:                                               ; preds = %2
  store ptr @.str.15, ptr %3, align 8
  br label %27

11:                                               ; preds = %2
  store ptr @.str.16, ptr %3, align 8
  br label %27

12:                                               ; preds = %2
  store ptr @.str.17, ptr %3, align 8
  br label %27

13:                                               ; preds = %2
  store ptr @.str.18, ptr %3, align 8
  br label %27

14:                                               ; preds = %2
  store ptr @.str.19, ptr %3, align 8
  br label %27

15:                                               ; preds = %2
  store ptr @.str.20, ptr %3, align 8
  br label %27

16:                                               ; preds = %2
  store ptr @.str.21, ptr %3, align 8
  br label %27

17:                                               ; preds = %2
  store ptr @.str.22, ptr %3, align 8
  br label %27

18:                                               ; preds = %2
  store ptr @.str.23, ptr %3, align 8
  br label %27

19:                                               ; preds = %2
  store ptr @.str.24, ptr %3, align 8
  br label %27

20:                                               ; preds = %2
  store ptr @.str.25, ptr %3, align 8
  br label %27

21:                                               ; preds = %2
  store ptr @.str.26, ptr %3, align 8
  br label %27

22:                                               ; preds = %2
  store ptr @.str.27, ptr %3, align 8
  br label %27

23:                                               ; preds = %2
  store ptr @.str.28, ptr %3, align 8
  br label %27

24:                                               ; preds = %2
  br label %25

25:                                               ; preds = %2, %24
  br label %26

26:                                               ; preds = %25
  store ptr null, ptr %3, align 8
  br label %27

27:                                               ; preds = %26, %23, %22, %21, %20, %19, %18, %17, %16, %15, %14, %13, %12, %11, %10, %9, %8, %7
  %28 = load ptr, ptr %3, align 8
  ret ptr %28
}