; Function Attrs: mustprogress nofree norecurse nosync nounwind willreturn memory(none) uwtable
define hidden noundef ptr @_ZN6Assimp3FBX12FBXConverter22NameTransformationCompENS1_18TransformationCompE(ptr noundef nonnull readnone align 8 captures(none) dereferenceable(489) %0, i32 noundef %1) local_unnamed_addr #13 align 2 {
  %3 = icmp ult i32 %1, 17
  br i1 %3, label %switch.lookup, label %5

switch.lookup:                                    ; preds = %2
  %4 = zext nneg i32 %1 to i64
  %switch.gep = getelementptr inbounds nuw [17 x ptr], ptr @switch.table._ZN6Assimp3FBX12FBXConverter27NameTransformationChainNodeERKNSt7__cxx1112basic_stringIcSt11char_traitsIcESaIcEEENS1_18TransformationCompE, i64 0, i64 %4
  %switch.load = load ptr, ptr %switch.gep, align 8
  br label %5

5:                                                ; preds = %2, %switch.lookup
  %.0 = phi ptr [ %switch.load, %switch.lookup ], [ null, %2 ]
  ret ptr %.0
}